; Function Attrs: mustprogress uwtable
define void @_ZN3gmx6Update20updateAfterPartitionEiNS_8ArrayRefIKtEES3_S3_(ptr nocapture noundef nonnull readonly align 8 dereferenceable(8) %0, i32 noundef %1, ptr %2, ptr %3, ptr %4, ptr %5, ptr nocapture noundef readonly byval(%"class.gmx::ArrayRef") align 8 %6) local_unnamed_addr #0 align 2 {
  %8 = load ptr, ptr %0, align 8
  %9 = getelementptr inbounds i8, ptr %8, i64 192
  %10 = sext i32 %1 to i64
  tail call void @_ZN3gmx12PaddedVectorINS_11BasicVectorIfEENS_9AllocatorIS2_NS_23AlignedAllocationPolicyEEEE17resizeWithPaddingEl(ptr noundef nonnull align 8 dereferenceable(32) %9, i64 noundef %10)
  %11 = load ptr, ptr %0, align 8
  store ptr %2, ptr %11, align 8
  %.sroa.22.0..sroa_idx = getelementptr inbounds i8, ptr %11, i64 8
  store ptr %3, ptr %.sroa.22.0..sroa_idx, align 8
  %12 = load ptr, ptr %0, align 8
  %13 = getelementptr inbounds i8, ptr %12, i64 16
  store ptr %4, ptr %13, align 8
  %.sroa.2.0..sroa_idx = getelementptr inbounds i8, ptr %12, i64 24
  store ptr %5, ptr %.sroa.2.0..sroa_idx, align 8
  %14 = load ptr, ptr %0, align 8
  %15 = getelementptr inbounds i8, ptr %14, i64 32
  call void @llvm.memcpy.p0.p0.i64(ptr noundef nonnull align 8 dereferenceable(16) %15, ptr noundef nonnull align 8 dereferenceable(16) %6, i64 16, i1 false)
  ret void
}